; Function Attrs: nounwind uwtable
define hidden void @VP8Clear(ptr noundef %0) local_unnamed_addr #3 {
  %2 = icmp eq ptr %0, null
  br i1 %2, label %12, label %3

3:                                                ; preds = %1
  %4 = tail call ptr @WebPGetWorkerInterface() #13
  %5 = getelementptr inbounds nuw i8, ptr %4, i64 40
  %6 = load ptr, ptr %5, align 8, !tbaa !29
  %7 = getelementptr inbounds nuw i8, ptr %0, i64 152
  tail call void %6(ptr noundef nonnull %7) #13
  tail call void @WebPDeallocateAlphaMemory(ptr noundef nonnull %0) #13
  %8 = getelementptr inbounds nuw i8, ptr %0, i64 2888
  %9 = load ptr, ptr %8, align 8, !tbaa !30
  tail call void @WebPSafeFree(ptr noundef %9) #13
  %10 = getelementptr inbounds nuw i8, ptr %0, i64 16
  tail call void @llvm.memset.p0.i64(ptr noundef nonnull align 8 dereferenceable(48) %10, i8 0, i64 48, i1 false)
  %11 = getelementptr inbounds nuw i8, ptr %0, i64 4
  store i32 0, ptr %11, align 4, !tbaa !26
  tail call void @llvm.memset.p0.i64(ptr noundef nonnull align 8 dereferenceable(16) %8, i8 0, i64 16, i1 false)
  br label %12

12:                                               ; preds = %1, %3
  ret void
}